; Function Attrs: mustprogress uwtable
define internal fastcc void @_ZN5arrow12_GLOBAL__N_110DebugState10SetHandlerESt8functionIFvPhlRKNS_6StatusEEE(ptr noundef nonnull captures(none) %0) unnamed_addr #4 align 2 personality ptr @__gxx_personality_v0 {
  %.sroa.0.i.i.i = alloca { i64, i64 }, align 8
  %2 = alloca %"class.std::function.50", align 8
  %3 = tail call noundef i32 @pthread_mutex_lock(ptr noundef nonnull align 8 dereferenceable(40) @_ZZN5arrow12_GLOBAL__N_110DebugState8InstanceEvE8instance) #32
  %.not.i.i = icmp eq i32 %3, 0
  br i1 %.not.i.i, label %_ZNSt10lock_guardISt5mutexEC2ERS0_.exit, label %4

4:                                                ; preds = %1
  tail call void @_ZSt20__throw_system_errori(i32 noundef %3) #36
  unreachable

_ZNSt10lock_guardISt5mutexEC2ERS0_.exit:          ; preds = %1
  call void @llvm.lifetime.start.p0(i64 32, ptr nonnull %2) #32
  %5 = getelementptr inbounds nuw i8, ptr %2, i64 24
  %6 = getelementptr inbounds nuw i8, ptr %0, i64 24
  call void @llvm.memset.p0.i64(ptr noundef nonnull align 8 dereferenceable(32) %2, i8 0, i64 24, i1 false)
  %7 = load ptr, ptr %6, align 8, !tbaa !288
  %8 = getelementptr inbounds nuw i8, ptr %0, i64 16
  %9 = load ptr, ptr %8, align 8, !tbaa !291
  %.not.i.i.not.i.i = icmp eq ptr %9, null
  br i1 %.not.i.i.not.i.i, label %_ZNSt8functionIFvPhlRKN5arrow6StatusEEEC2EOS6_.exit.i, label %10

10:                                               ; preds = %_ZNSt10lock_guardISt5mutexEC2ERS0_.exit
  call void @llvm.memcpy.p0.p0.i64(ptr noundef nonnull align 8 dereferenceable(32) %2, ptr noundef nonnull align 8 dereferenceable(32) %0, i64 16, i1 false), !tbaa.struct !292
  tail call void @llvm.memset.p0.i64(ptr noundef nonnull align 8 dereferenceable(16) %8, i8 0, i64 16, i1 false)
  br label %_ZNSt8functionIFvPhlRKN5arrow6StatusEEEC2EOS6_.exit.i

_ZNSt8functionIFvPhlRKN5arrow6StatusEEEC2EOS6_.exit.i: ; preds = %10, %_ZNSt10lock_guardISt5mutexEC2ERS0_.exit
  call void @llvm.lifetime.start.p0(i64 16, ptr nonnull %.sroa.0.i.i.i)
  call void @llvm.memcpy.p0.p0.i64(ptr noundef nonnull align 8 dereferenceable(16) %.sroa.0.i.i.i, ptr noundef nonnull align 8 dereferenceable(32) %2, i64 16, i1 false), !tbaa.struct !292
  call void @llvm.memcpy.p0.p0.i64(ptr noundef nonnull align 8 dereferenceable(32) %2, ptr noundef nonnull align 8 dereferenceable(32) getelementptr inbounds nuw (i8, ptr @_ZZN5arrow12_GLOBAL__N_110DebugState8InstanceEvE8instance, i64 40), i64 16, i1 false), !tbaa.struct !292
  call void @llvm.memcpy.p0.p0.i64(ptr noundef nonnull align 8 dereferenceable(32) getelementptr inbounds nuw (i8, ptr @_ZZN5arrow12_GLOBAL__N_110DebugState8InstanceEvE8instance, i64 40), ptr noundef nonnull align 8 dereferenceable(16) %.sroa.0.i.i.i, i64 16, i1 false), !tbaa.struct !292
  call void @llvm.lifetime.end.p0(i64 16, ptr nonnull %.sroa.0.i.i.i)
  %11 = getelementptr inbounds nuw i8, ptr %2, i64 16
  %12 = load ptr, ptr getelementptr inbounds nuw (i8, ptr @_ZZN5arrow12_GLOBAL__N_110DebugState8InstanceEvE8instance, i64 56), align 8, !tbaa !287
  store ptr %12, ptr %11, align 8, !tbaa !287
  store ptr %9, ptr getelementptr inbounds nuw (i8, ptr @_ZZN5arrow12_GLOBAL__N_110DebugState8InstanceEvE8instance, i64 56), align 8, !tbaa !287
  %13 = load ptr, ptr getelementptr inbounds nuw (i8, ptr @_ZZN5arrow12_GLOBAL__N_110DebugState8InstanceEvE8instance, i64 64), align 8, !tbaa !287
  store ptr %13, ptr %5, align 8, !tbaa !287
  store ptr %7, ptr getelementptr inbounds nuw (i8, ptr @_ZZN5arrow12_GLOBAL__N_110DebugState8InstanceEvE8instance, i64 64), align 8, !tbaa !287
  %.not.i.i1 = icmp eq ptr %12, null
  br i1 %.not.i.i1, label %_ZNSt8functionIFvPhlRKN5arrow6StatusEEEaSEOS6_.exit, label %14

14:                                               ; preds = %_ZNSt8functionIFvPhlRKN5arrow6StatusEEEC2EOS6_.exit.i
  %15 = invoke noundef zeroext i1 %12(ptr noundef nonnull align 8 dereferenceable(32) %2, ptr noundef nonnull align 8 dereferenceable(32) %2, i32 noundef 3)
          to label %_ZNSt8functionIFvPhlRKN5arrow6StatusEEEaSEOS6_.exit unwind label %16

16:                                               ; preds = %14
  %17 = landingpad { ptr, i32 }
          catch ptr null
  %18 = extractvalue { ptr, i32 } %17, 0
  call void @__clang_call_terminate(ptr %18) #35
  unreachable

_ZNSt8functionIFvPhlRKN5arrow6StatusEEEaSEOS6_.exit: ; preds = %_ZNSt8functionIFvPhlRKN5arrow6StatusEEEC2EOS6_.exit.i, %14
  call void @llvm.lifetime.end.p0(i64 32, ptr nonnull %2) #32
  %19 = call noundef i32 @pthread_mutex_unlock(ptr noundef nonnull align 8 dereferenceable(40) @_ZZN5arrow12_GLOBAL__N_110DebugState8InstanceEvE8instance) #32
  ret void
}